#include <math.h>
#include <stdio.h>
#include <stdlib.h>
#include <string.h>


int main()
{
	struct patient
	{
		char id[10];
		int age;
	};

	int n, i, j, k;
	struct patient p[100];	

	scanf("%d", &n);

	for(i=0; i<n; i++)
		scanf("%s%d", p[i].id, &p[i].age);

	for(i=1; i<n; i++)
	{
		if (p[i].age >= 60)
		{
			j=0;
			while(j<i && p[j].age >= p[i].age) j++;
			if (j < i)
			{
				struct patient tmp = p[i];
				for(k=i;k>j;k--)
					p[k] = p[k-1];
				p[j]=tmp;
			}
		}
	}

	for(i=0; i<n; i++)
		printf("%s\n", p[i].id);
	
	return 0;
}
