; ModuleID = '9/1.c'
source_filename = "9/1.c"
target datalayout = "e-m:e-p270:32:32-p271:32:32-p272:64:64-i64:64-f80:128-n8:16:32:64-S128"
target triple = "x86_64-pc-linux-gnu"

%struct.patient = type { [10 x i8], i32 }

@.str = private unnamed_addr constant [3 x i8] c"%d\00", align 1
@.str.1 = private unnamed_addr constant [5 x i8] c"%s%d\00", align 1
@.str.2 = private unnamed_addr constant [4 x i8] c"%s\0A\00", align 1

; Function Attrs: noinline nounwind uwtable
define dso_local i32 @main() #0 {
  %1 = alloca i32, align 4
  %2 = alloca i32, align 4
  %3 = alloca i32, align 4
  %4 = alloca i32, align 4
  %5 = alloca i32, align 4
  %6 = alloca [100 x %struct.patient], align 16
  %7 = alloca %struct.patient, align 4
  store i32 0, i32* %1, align 4
  %8 = call i32 (i8*, ...) @__isoc99_scanf(i8* getelementptr inbounds ([3 x i8], [3 x i8]* @.str, i64 0, i64 0), i32* %2)
  store i32 0, i32* %3, align 4
  br label %9

9:                                                ; preds = %24, %0
  %10 = load i32, i32* %3, align 4
  %11 = load i32, i32* %2, align 4
  %12 = icmp slt i32 %10, %11
  br i1 %12, label %13, label %27

13:                                               ; preds = %9
  %14 = load i32, i32* %3, align 4
  %15 = sext i32 %14 to i64
  %16 = getelementptr inbounds [100 x %struct.patient], [100 x %struct.patient]* %6, i64 0, i64 %15
  %17 = getelementptr inbounds %struct.patient, %struct.patient* %16, i32 0, i32 0
  %18 = getelementptr inbounds [10 x i8], [10 x i8]* %17, i64 0, i64 0
  %19 = load i32, i32* %3, align 4
  %20 = sext i32 %19 to i64
  %21 = getelementptr inbounds [100 x %struct.patient], [100 x %struct.patient]* %6, i64 0, i64 %20
  %22 = getelementptr inbounds %struct.patient, %struct.patient* %21, i32 0, i32 1
  %23 = call i32 (i8*, ...) @__isoc99_scanf(i8* getelementptr inbounds ([5 x i8], [5 x i8]* @.str.1, i64 0, i64 0), i8* %18, i32* %22)
  br label %24

24:                                               ; preds = %13
  %25 = load i32, i32* %3, align 4
  %26 = add nsw i32 %25, 1
  store i32 %26, i32* %3, align 4
  br label %9

27:                                               ; preds = %9
  store i32 1, i32* %3, align 4
  br label %28

28:                                               ; preds = %97, %27
  %29 = load i32, i32* %3, align 4
  %30 = load i32, i32* %2, align 4
  %31 = icmp slt i32 %29, %30
  br i1 %31, label %32, label %100

32:                                               ; preds = %28
  %33 = load i32, i32* %3, align 4
  %34 = sext i32 %33 to i64
  %35 = getelementptr inbounds [100 x %struct.patient], [100 x %struct.patient]* %6, i64 0, i64 %34
  %36 = getelementptr inbounds %struct.patient, %struct.patient* %35, i32 0, i32 1
  %37 = load i32, i32* %36, align 4
  %38 = icmp sge i32 %37, 60
  br i1 %38, label %39, label %96

39:                                               ; preds = %32
  store i32 0, i32* %4, align 4
  br label %40

40:                                               ; preds = %58, %39
  %41 = load i32, i32* %4, align 4
  %42 = load i32, i32* %3, align 4
  %43 = icmp slt i32 %41, %42
  br i1 %43, label %44, label %56

44:                                               ; preds = %40
  %45 = load i32, i32* %4, align 4
  %46 = sext i32 %45 to i64
  %47 = getelementptr inbounds [100 x %struct.patient], [100 x %struct.patient]* %6, i64 0, i64 %46
  %48 = getelementptr inbounds %struct.patient, %struct.patient* %47, i32 0, i32 1
  %49 = load i32, i32* %48, align 4
  %50 = load i32, i32* %3, align 4
  %51 = sext i32 %50 to i64
  %52 = getelementptr inbounds [100 x %struct.patient], [100 x %struct.patient]* %6, i64 0, i64 %51
  %53 = getelementptr inbounds %struct.patient, %struct.patient* %52, i32 0, i32 1
  %54 = load i32, i32* %53, align 4
  %55 = icmp sge i32 %49, %54
  br label %56

56:                                               ; preds = %44, %40
  %57 = phi i1 [ false, %40 ], [ %55, %44 ]
  br i1 %57, label %58, label %61

58:                                               ; preds = %56
  %59 = load i32, i32* %4, align 4
  %60 = add nsw i32 %59, 1
  store i32 %60, i32* %4, align 4
  br label %40

61:                                               ; preds = %56
  %62 = load i32, i32* %4, align 4
  %63 = load i32, i32* %3, align 4
  %64 = icmp slt i32 %62, %63
  br i1 %64, label %65, label %95

65:                                               ; preds = %61
  %66 = load i32, i32* %3, align 4
  %67 = sext i32 %66 to i64
  %68 = getelementptr inbounds [100 x %struct.patient], [100 x %struct.patient]* %6, i64 0, i64 %67
  %69 = bitcast %struct.patient* %7 to i8*
  %70 = bitcast %struct.patient* %68 to i8*
  call void @llvm.memcpy.p0i8.p0i8.i64(i8* align 4 %69, i8* align 16 %70, i64 16, i1 false)
  %71 = load i32, i32* %3, align 4
  store i32 %71, i32* %5, align 4
  br label %72

72:                                               ; preds = %86, %65
  %73 = load i32, i32* %5, align 4
  %74 = load i32, i32* %4, align 4
  %75 = icmp sgt i32 %73, %74
  br i1 %75, label %76, label %89

76:                                               ; preds = %72
  %77 = load i32, i32* %5, align 4
  %78 = sext i32 %77 to i64
  %79 = getelementptr inbounds [100 x %struct.patient], [100 x %struct.patient]* %6, i64 0, i64 %78
  %80 = load i32, i32* %5, align 4
  %81 = sub nsw i32 %80, 1
  %82 = sext i32 %81 to i64
  %83 = getelementptr inbounds [100 x %struct.patient], [100 x %struct.patient]* %6, i64 0, i64 %82
  %84 = bitcast %struct.patient* %79 to i8*
  %85 = bitcast %struct.patient* %83 to i8*
  call void @llvm.memcpy.p0i8.p0i8.i64(i8* align 16 %84, i8* align 16 %85, i64 16, i1 false)
  br label %86

86:                                               ; preds = %76
  %87 = load i32, i32* %5, align 4
  %88 = add nsw i32 %87, -1
  store i32 %88, i32* %5, align 4
  br label %72

89:                                               ; preds = %72
  %90 = load i32, i32* %4, align 4
  %91 = sext i32 %90 to i64
  %92 = getelementptr inbounds [100 x %struct.patient], [100 x %struct.patient]* %6, i64 0, i64 %91
  %93 = bitcast %struct.patient* %92 to i8*
  %94 = bitcast %struct.patient* %7 to i8*
  call void @llvm.memcpy.p0i8.p0i8.i64(i8* align 16 %93, i8* align 4 %94, i64 16, i1 false)
  br label %95

95:                                               ; preds = %89, %61
  br label %96

96:                                               ; preds = %95, %32
  br label %97

97:                                               ; preds = %96
  %98 = load i32, i32* %3, align 4
  %99 = add nsw i32 %98, 1
  store i32 %99, i32* %3, align 4
  br label %28

100:                                              ; preds = %28
  store i32 0, i32* %3, align 4
  br label %101

101:                                              ; preds = %112, %100
  %102 = load i32, i32* %3, align 4
  %103 = load i32, i32* %2, align 4
  %104 = icmp slt i32 %102, %103
  br i1 %104, label %105, label %115

105:                                              ; preds = %101
  %106 = load i32, i32* %3, align 4
  %107 = sext i32 %106 to i64
  %108 = getelementptr inbounds [100 x %struct.patient], [100 x %struct.patient]* %6, i64 0, i64 %107
  %109 = getelementptr inbounds %struct.patient, %struct.patient* %108, i32 0, i32 0
  %110 = getelementptr inbounds [10 x i8], [10 x i8]* %109, i64 0, i64 0
  %111 = call i32 (i8*, ...) @printf(i8* getelementptr inbounds ([4 x i8], [4 x i8]* @.str.2, i64 0, i64 0), i8* %110)
  br label %112

112:                                              ; preds = %105
  %113 = load i32, i32* %3, align 4
  %114 = add nsw i32 %113, 1
  store i32 %114, i32* %3, align 4
  br label %101

115:                                              ; preds = %101
  ret i32 0
}

declare dso_local i32 @__isoc99_scanf(i8*, ...) #1

; Function Attrs: argmemonly nounwind willreturn
declare void @llvm.memcpy.p0i8.p0i8.i64(i8* noalias nocapture writeonly, i8* noalias nocapture readonly, i64, i1 immarg) #2

declare dso_local i32 @printf(i8*, ...) #1


!llvm.module.flags = !{!0}
!llvm.ident = !{!1}

!0 = !{i32 1, !"wchar_size", i32 4}
!1 = !{!"clang version 10.0.0-4ubuntu1 "}
